MPASM 5.53                    TASK 6 ALT.ASM   11-19-2013  20:01:47         PAGE  1


LOC  OBJECT CODE     LINE SOURCE TEXT
  VALUE

                      00001  #include "p16f84a.inc"
                      00001         LIST
                      00002 
                      00003 ;==========================================================================
                      00004 ;  MPASM PIC16F84A processor include
                      00005 ; 
                      00006 ;  (c) Copyright 1999-2013 Microchip Technology, All rights reserved
                      00007 ;==========================================================================
                      00008 
                      00208         LIST
                      00002 
0000                  00003 INIT:
0000   1683           00004     BSF STATUS, RP0 ;;move to bank 1
                      00005 
0001   30FF           00006     MOVLW 0XFF ;;set the switches for input
Message[302]: Register in operand not in bank 0.  Ensure that bank bits are correct.
0002   0085           00007     MOVWF TRISA
                      00008 
Message[302]: Register in operand not in bank 0.  Ensure that bank bits are correct.
0003   0186           00009     CLRF TRISB ;;set the lights for output
                      00010 
0004   1283           00011     BCF STATUS, RP0 ;;move bank to bank 0
                      00012 
Warning[207]: Found label after column 1. (VALA)
  000000C0            00013     VALA EQU 0xC0 ;;define vars
Warning[207]: Found label after column 1. (VALB)
  000000C1            00014     VALB EQU 0xC1
Warning[207]: Found label after column 1. (VALC)
  000000C2            00015     VALC EQU 0xC2
                      00016 
Warning[207]: Found label after column 1. (COUNTER1)
  000000C3            00017     COUNTER1 EQU 0xC3
Warning[207]: Found label after column 1. (COUNTER2)
  000000C4            00018     COUNTER2 EQU 0xC4
Warning[207]: Found label after column 1. (COUNTER3)
  000000C5            00019     COUNTER3 EQU 0xC5
Warning[207]: Found label after column 1. (COUNTER4)
  000000C6            00020     COUNTER4 EQU 0xC6
Warning[207]: Found label after column 1. (COUNTER5)
  000000C7            00021     COUNTER5 EQU 0xC7
Warning[207]: Found label after column 1. (COUNTER6)
  000000C8            00022     COUNTER6 EQU 0xC8
                      00023 
                      00024 
0005                  00025 MAIN:
0005   1406           00026     BSF PORTB, 0
                      00027 
0006   2007           00028     CALL UP
                      00029 
0007                  00030 UP:
0007   2013           00031     CALL        WAIT                    ; wait for a bit
0008   1003           00032         BCF     STATUS, 0               ; clear carry bit
0009   0D86           00033         RLF     PORTB,  1               ; rotate left portb, store result portb
MPASM 5.53                    TASK 6 ALT.ASM   11-19-2013  20:01:47         PAGE  2


LOC  OBJECT CODE     LINE SOURCE TEXT
  VALUE

000A   1F86           00034         BTFSS   PORTB,  7                       ; skip next line if top bit set
000B   2807           00035         GOTO    UP
000C   280D           00036     GOTO    DOWN
                      00037 
000D                  00038 DOWN:
000D   2013           00039     CALL        WAIT                    ; wait for a bit
000E   1003           00040         BCF     STATUS, 0               ; clear carry bit
000F   0C86           00041         RRF     PORTB,  1               ; rotate right portb, store in portb
0010   1C06           00042         BTFSS   PORTB,  0                       ; skip next line if bottom bit set
0011   280D           00043         GOTO    DOWN
0012   2807           00044         GOTO    UP              ; do it all again
                      00045 
                      00046 
0013                  00047 WAIT:
0013   3003           00048     MOVLW       0x03                    ; Set stall counter(s) to 255
Message[302]: Register in operand not in bank 0.  Ensure that bank bits are correct.
0014   00C3           00049         MOVWF   COUNTER1                        ; and load into memory
0015   3018           00050         MOVLW   0x18
Message[302]: Register in operand not in bank 0.  Ensure that bank bits are correct.
0016   00C4           00051         MOVWF   COUNTER2
0017   3002           00052         MOVLW   0x02
Message[302]: Register in operand not in bank 0.  Ensure that bank bits are correct.
0018   00C5           00053         MOVWF   COUNTER3
                      00054 
0019   201B           00055     CALL STALL
                      00056 
001A   0008           00057         RETURN          ; Rinse and repeat
                      00058 
001B                  00059 STALL:
Message[302]: Register in operand not in bank 0.  Ensure that bank bits are correct.
001B   0BC3           00060         DECFSZ  COUNTER1, 1
001C   281E           00061         GOTO    $+2
Message[302]: Register in operand not in bank 0.  Ensure that bank bits are correct.
001D   0BC4           00062         DECFSZ  COUNTER2, 1
001E   2820           00063         GOTO    $+2
Message[302]: Register in operand not in bank 0.  Ensure that bank bits are correct.
001F   0BC5           00064         DECFSZ  COUNTER3, 1
0020   281B           00065         GOTO    STALL
                      00066 
0021   0008           00067         RETURN
                      00068 
                      00069     END
MPASM 5.53                    TASK 6 ALT.ASM   11-19-2013  20:01:47         PAGE  3


SYMBOL TABLE
  LABEL                             VALUE 

C                                 00000000
COUNTER1                          000000C3
COUNTER2                          000000C4
COUNTER3                          000000C5
COUNTER4                          000000C6
COUNTER5                          000000C7
COUNTER6                          000000C8
DC                                00000001
DOWN                              0000000D
EEADR                             00000009
EECON1                            00000088
EECON2                            00000089
EEDATA                            00000008
EEIE                              00000006
EEIF                              00000004
F                                 00000001
FSR                               00000004
GIE                               00000007
INDF                              00000000
INIT                              00000000
INTCON                            0000000B
INTE                              00000004
INTEDG                            00000006
INTF                              00000001
IRP                               00000007
MAIN                              00000005
NOT_PD                            00000003
NOT_RBPU                          00000007
NOT_TO                            00000004
OPTION_REG                        00000081
PCL                               00000002
PCLATH                            0000000A
PORTA                             00000005
PORTB                             00000006
PS0                               00000000
PS1                               00000001
PS2                               00000002
PSA                               00000003
RA0                               00000000
RA1                               00000001
RA2                               00000002
RA3                               00000003
RA4                               00000004
RB0                               00000000
RB1                               00000001
RB2                               00000002
RB3                               00000003
RB4                               00000004
RB5                               00000005
RB6                               00000006
RB7                               00000007
RBIE                              00000003
RBIF                              00000000
MPASM 5.53                    TASK 6 ALT.ASM   11-19-2013  20:01:47         PAGE  4


SYMBOL TABLE
  LABEL                             VALUE 

RD                                00000000
RP0                               00000005
RP1                               00000006
STALL                             0000001B
STATUS                            00000003
T0CS                              00000005
T0IE                              00000005
T0IF                              00000002
T0SE                              00000004
TMR0                              00000001
TMR0IE                            00000005
TMR0IF                            00000002
TRISA                             00000085
TRISA0                            00000000
TRISA1                            00000001
TRISA2                            00000002
TRISA3                            00000003
TRISA4                            00000004
TRISB                             00000086
TRISB0                            00000000
TRISB1                            00000001
TRISB2                            00000002
TRISB3                            00000003
TRISB4                            00000004
TRISB5                            00000005
TRISB6                            00000006
TRISB7                            00000007
UP                                00000007
VALA                              000000C0
VALB                              000000C1
VALC                              000000C2
W                                 00000000
WAIT                              00000013
WR                                00000001
WREN                              00000002
WRERR                             00000003
Z                                 00000002
_CONFIG                           00002007
_CP_OFF                           00003FFF
_CP_ON                            0000000F
_DEVID1                           00002006
_FOSC_EXTRC                       00003FFF
_FOSC_HS                          00003FFE
_FOSC_LP                          00003FFC
_FOSC_XT                          00003FFD
_HS_OSC                           00003FFE
_IDLOC0                           00002000
_IDLOC1                           00002001
_IDLOC2                           00002002
_IDLOC3                           00002003
_LP_OSC                           00003FFC
_PWRTE_OFF                        00003FFF
_PWRTE_ON                         00003FF7
MPASM 5.53                    TASK 6 ALT.ASM   11-19-2013  20:01:47         PAGE  5


SYMBOL TABLE
  LABEL                             VALUE 

_RC_OSC                           00003FFF
_WDTE_OFF                         00003FFB
_WDTE_ON                          00003FFF
_WDT_OFF                          00003FFB
_WDT_ON                           00003FFF
_XT_OSC                           00003FFD
__16F84A                          00000001


MEMORY USAGE MAP ('X' = Used,  '-' = Unused)

0000 : XXXXXXXXXXXXXXXX XXXXXXXXXXXXXXXX XX-------------- ----------------

All other memory blocks unused.

Program Memory Words Used:    34
Program Memory Words Free:   990


Errors   :     0
Warnings :     9 reported,     0 suppressed
Messages :     8 reported,     0 suppressed

