MPASM 5.53                        TASK 6.ASM   11-21-2013  0:29:55         PAGE  1


LOC  OBJECT CODE     LINE SOURCE TEXT
  VALUE

                      00001 #include "p16f84a.inc"
                      00001         LIST
                      00002 
                      00003 ;==========================================================================
                      00004 ;  MPASM PIC16F84A processor include
                      00005 ; 
                      00006 ;  (c) Copyright 1999-2013 Microchip Technology, All rights reserved
                      00007 ;==========================================================================
                      00008 
                      00208         LIST
                      00002 
                      00003 ; CONFIG
                      00004 ; __config 0xFFF3
2007   3FF3           00005  __CONFIG _FOSC_EXTRC & _WDTE_OFF & _PWRTE_ON & _CP_OFF
                      00006 
                      00007 ;variable definitions
  00000010            00008 VALA       EQU 0x10
  00000011            00009 COUNTER1   EQU 0x11
  00000012            00010 COUNTER2   EQU 0x12
                      00011 
                      00012 ;;;;;;;;;;;;;;;;;;;;;;;;;;;;;;;;;;;;;;;;;;;;;;;;;;;;;;;;;;;;;;;;;;;;;;;
                      00013 ; INIT                                                                ;
                      00014 ; This section of code is where any pre program setup is done         ;
                      00015 ;;;;;;;;;;;;;;;;;;;;;;;;;;;;;;;;;;;;;;;;;;;;;;;;;;;;;;;;;;;;;;;;;;;;;;;
Error[150]  : Labels must be defined in a code or data section when making an object file
0000                  00016 INIT:
Error[152]  : Executable code and data must be defined in an appropriate section
0000                  00017     BSF     STATUS, RP0 ;move to bank 1
                      00018 
Error[152]  : Executable code and data must be defined in an appropriate section
0000                  00019     MOVLW   0XFF        ;set the switches for input
Message[302]: Register in operand not in bank 0.  Ensure that bank bits are correct.
Error[152]  : Executable code and data must be defined in an appropriate section
0000                  00020     MOVWF   TRISA
                      00021 
Message[302]: Register in operand not in bank 0.  Ensure that bank bits are correct.
Error[152]  : Executable code and data must be defined in an appropriate section
0000                  00022     CLRF    TRISB       ;set the lights for output
                      00023 
Error[152]  : Executable code and data must be defined in an appropriate section
0000                  00024     BCF     STATUS, RP0 ;move to bank 0
                      00025 
                      00026 ;;;;;;;;;;;;;;;;;;;;;;;;;;;;;;;;;;;;;;;;;;;;;;;;;;;;;;;;;;;;;;;;;;;;;;;
                      00027 ; MAIN                                                                ;
                      00028 ; This is the main entry point of the application                     ;
                      00029 ;;;;;;;;;;;;;;;;;;;;;;;;;;;;;;;;;;;;;;;;;;;;;;;;;;;;;;;;;;;;;;;;;;;;;;;
Error[150]  : Labels must be defined in a code or data section when making an object file
0000                  00030 MAIN:
Error[152]  : Executable code and data must be defined in an appropriate section
0000                  00031     BCF     STATUS, C
Error[152]  : Executable code and data must be defined in an appropriate section
0000                  00032     MOVLW   b'00000001'
Error[152]  : Executable code and data must be defined in an appropriate section
MPASM 5.53                        TASK 6.ASM   11-21-2013  0:29:55         PAGE  2


LOC  OBJECT CODE     LINE SOURCE TEXT
  VALUE

0000                  00033     MOVWF   PORTB
                      00034 
Error[151]  : Operand contains unresolvable labels or is too complex
Error[152]  : Executable code and data must be defined in an appropriate section
0000                  00035     CALL    KNIGHT
                      00036 
                      00037 ;;;;;;;;;;;;;;;;;;;;;;;;;;;;;;;;;;;;;;;;;;;;;;;;;;;;;;;;;;;;;;;;;;;;;;;
                      00038 ; KNIGHT                                                                ;
                      00039 ; This is the block of code that controls                     ;
                      00040 ;;;;;;;;;;;;;;;;;;;;;;;;;;;;;;;;;;;;;;;;;;;;;;;;;;;;;;;;;;;;;;;;;;;;;;;
Error[150]  : Labels must be defined in a code or data section when making an object file
0000                  00041 KNIGHT:
Error[152]  : Executable code and data must be defined in an appropriate section
0000                  00042     MOVLW   d'07'       ;set how many stop to move
Error[152]  : Executable code and data must be defined in an appropriate section
0000                  00043     MOVWF   VALA
Error[151]  : Operand contains unresolvable labels or is too complex
Error[152]  : Executable code and data must be defined in an appropriate section
0000                  00044     CALL    UP          ;move up the lights
                      00045 
Error[152]  : Executable code and data must be defined in an appropriate section
0000                  00046     MOVLW   d'07'       ;set how many stops to move
Error[152]  : Executable code and data must be defined in an appropriate section
0000                  00047     MOVWF   VALA
Error[151]  : Operand contains unresolvable labels or is too complex
Error[152]  : Executable code and data must be defined in an appropriate section
0000                  00048     CALL    DOWN        ;move down the lights
                      00049 
Error[151]  : Operand contains unresolvable labels or is too complex
Error[152]  : Executable code and data must be defined in an appropriate section
0000                  00050     GOTO KNIGHT
                      00051 
                      00052 ;;;;;;;;;;;;;;;;;;;;;;;;;;;;;;;;;;;;;;;;;;;;;;;;;;;;;;;;;;;;;;;;;;;;;;;
                      00053 ; UP                                                                  ;
                      00054 ; This subroutine is used to wrap moving the light up the board       ;
                      00055 ;;;;;;;;;;;;;;;;;;;;;;;;;;;;;;;;;;;;;;;;;;;;;;;;;;;;;;;;;;;;;;;;;;;;;;;
Error[150]  : Labels must be defined in a code or data section when making an object file
0000                  00056 UP:
Error[151]  : Operand contains unresolvable labels or is too complex
Error[152]  : Executable code and data must be defined in an appropriate section
0000                  00057     CALL    WAIT        ;have the processor stall
Error[151]  : Operand contains unresolvable labels or is too complex
Error[152]  : Executable code and data must be defined in an appropriate section
0000                  00058     CALL    SHIFT_UP    ;move the bit
Error[152]  : Executable code and data must be defined in an appropriate section
0000                  00059     DECFSZ  VALA, F     ;see if we have finished the cycle
Error[151]  : Operand contains unresolvable labels or is too complex
Error[152]  : Executable code and data must be defined in an appropriate section
0000                  00060     GOTO    UP          ;loop
Error[152]  : Executable code and data must be defined in an appropriate section
0000                  00061     RETURN
                      00062 
                      00063 ;;;;;;;;;;;;;;;;;;;;;;;;;;;;;;;;;;;;;;;;;;;;;;;;;;;;;;;;;;;;;;;;;;;;;;;
MPASM 5.53                        TASK 6.ASM   11-21-2013  0:29:55         PAGE  3


LOC  OBJECT CODE     LINE SOURCE TEXT
  VALUE

                      00064 ; SHIFT_UP                                                            ;
                      00065 ; This subroutine is used to create a SLL style function              ;
                      00066 ;;;;;;;;;;;;;;;;;;;;;;;;;;;;;;;;;;;;;;;;;;;;;;;;;;;;;;;;;;;;;;;;;;;;;;;
Error[150]  : Labels must be defined in a code or data section when making an object file
0000                  00067 SHIFT_UP:
Error[152]  : Executable code and data must be defined in an appropriate section
0000                  00068     RLF     PORTB, F    ;shift the 1 up
Error[152]  : Executable code and data must be defined in an appropriate section
0000                  00069     RETURN
                      00070 
                      00071 ;;;;;;;;;;;;;;;;;;;;;;;;;;;;;;;;;;;;;;;;;;;;;;;;;;;;;;;;;;;;;;;;;;;;;;;
                      00072 ; DOWN                                                                ;
                      00073 ; This subroutine is used to wrap moving the light down the board     ;
                      00074 ;;;;;;;;;;;;;;;;;;;;;;;;;;;;;;;;;;;;;;;;;;;;;;;;;;;;;;;;;;;;;;;;;;;;;;;
Error[150]  : Labels must be defined in a code or data section when making an object file
0000                  00075 DOWN:
Error[151]  : Operand contains unresolvable labels or is too complex
Error[152]  : Executable code and data must be defined in an appropriate section
0000                  00076     CALL    WAIT        ;have the processor stall
Error[151]  : Operand contains unresolvable labels or is too complex
Error[152]  : Executable code and data must be defined in an appropriate section
0000                  00077     CALL    SHIFT_DOWN  ;move the bit
Error[152]  : Executable code and data must be defined in an appropriate section
0000                  00078     DECFSZ  VALA, F     ;see if we have finished the cycle
Error[151]  : Operand contains unresolvable labels or is too complex
Error[152]  : Executable code and data must be defined in an appropriate section
0000                  00079     GOTO    DOWN        ;loop
Error[152]  : Executable code and data must be defined in an appropriate section
0000                  00080     RETURN
                      00081 
                      00082 
                      00083 ;;;;;;;;;;;;;;;;;;;;;;;;;;;;;;;;;;;;;;;;;;;;;;;;;;;;;;;;;;;;;;;;;;;;;;;
                      00084 ; SHIFT_DOWN                                                          ;
                      00085 ; This subroutine is used to create a SRL style function              ;
                      00086 ;;;;;;;;;;;;;;;;;;;;;;;;;;;;;;;;;;;;;;;;;;;;;;;;;;;;;;;;;;;;;;;;;;;;;;;
Error[150]  : Labels must be defined in a code or data section when making an object file
0000                  00087 SHIFT_DOWN:
Error[152]  : Executable code and data must be defined in an appropriate section
0000                  00088     RRF     PORTB, F    ;shift the 1 down
Error[152]  : Executable code and data must be defined in an appropriate section
0000                  00089     RETURN
                      00090 
                      00091 ;;;;;;;;;;;;;;;;;;;;;;;;;;;;;;;;;;;;;;;;;;;;;;;;;;;;;;;;;;;;;;;;;;;;;;;
                      00092 ; WAIT                                                                ;
                      00093 ; This subroutine causes the processor to stall for a short period    ;
                      00094 ;;;;;;;;;;;;;;;;;;;;;;;;;;;;;;;;;;;;;;;;;;;;;;;;;;;;;;;;;;;;;;;;;;;;;;;
Error[150]  : Labels must be defined in a code or data section when making an object file
0000                  00095 WAIT:
Error[152]  : Executable code and data must be defined in an appropriate section
0000                  00096     MOVLW   0x7A        ;store 255 in both of the counters
Error[152]  : Executable code and data must be defined in an appropriate section
0000                  00097     MOVWF   COUNTER1
Error[152]  : Executable code and data must be defined in an appropriate section
MPASM 5.53                        TASK 6.ASM   11-21-2013  0:29:55         PAGE  4


LOC  OBJECT CODE     LINE SOURCE TEXT
  VALUE

0000                  00098     MOVWF   COUNTER1
                      00099 
Error[151]  : Operand contains unresolvable labels or is too complex
Error[152]  : Executable code and data must be defined in an appropriate section
0000                  00100     GOTO    LOOP1       ;go into the first loop
Error[150]  : Labels must be defined in a code or data section when making an object file
0000                  00101 LOOP1:
Error[152]  : Executable code and data must be defined in an appropriate section
0000                  00102     DECFSZ  COUNTER1, F ;decrement the loop counter untill it gets to 0
Error[151]  : Operand contains unresolvable labels or is too complex
Error[152]  : Executable code and data must be defined in an appropriate section
0000                  00103     GOTO    LOOP2       ;move into the second loop
                      00104 
Error[152]  : Executable code and data must be defined in an appropriate section
0000                  00105     RETURN              ;return the the point where the wait sub was called
Error[150]  : Labels must be defined in a code or data section when making an object file
0000                  00106 LOOP2:
Error[152]  : Executable code and data must be defined in an appropriate section
0000                  00107     DECFSZ  COUNTER2, F ;decrement the loop counter untill it gets to 0
Error[151]  : Operand contains unresolvable labels or is too complex
Error[152]  : Executable code and data must be defined in an appropriate section
0000                  00108     GOTO    LOOP2       ;loop around
Error[151]  : Operand contains unresolvable labels or is too complex
Error[152]  : Executable code and data must be defined in an appropriate section
0000                  00109     GOTO    LOOP1       ;go back to the first loop
                      00110 
3FF3                  00111     END
MPASM 5.53                        TASK 6.ASM   11-21-2013  0:29:55         PAGE  5


SYMBOL TABLE
  LABEL                             VALUE 

C                                 00000000
COUNTER1                          00000011
COUNTER2                          00000012
DC                                00000001
DOWN                              00000000
EEADR                             00000009
EECON1                            00000088
EECON2                            00000089
EEDATA                            00000008
EEIE                              00000006
EEIF                              00000004
F                                 00000001
FSR                               00000004
GIE                               00000007
INDF                              00000000
INIT                              00000000
INTCON                            0000000B
INTE                              00000004
INTEDG                            00000006
INTF                              00000001
IRP                               00000007
KNIGHT                            00000000
LOOP1                             00000000
LOOP2                             00000000
MAIN                              00000000
NOT_PD                            00000003
NOT_RBPU                          00000007
NOT_TO                            00000004
OPTION_REG                        00000081
PCL                               00000002
PCLATH                            0000000A
PORTA                             00000005
PORTB                             00000006
PS0                               00000000
PS1                               00000001
PS2                               00000002
PSA                               00000003
RA0                               00000000
RA1                               00000001
RA2                               00000002
RA3                               00000003
RA4                               00000004
RB0                               00000000
RB1                               00000001
RB2                               00000002
RB3                               00000003
RB4                               00000004
RB5                               00000005
RB6                               00000006
RB7                               00000007
RBIE                              00000003
RBIF                              00000000
RD                                00000000
MPASM 5.53                        TASK 6.ASM   11-21-2013  0:29:55         PAGE  6


SYMBOL TABLE
  LABEL                             VALUE 

RP0                               00000005
RP1                               00000006
SHIFT_DOWN                        00000000
SHIFT_UP                          00000000
STATUS                            00000003
T0CS                              00000005
T0IE                              00000005
T0IF                              00000002
T0SE                              00000004
TMR0                              00000001
TMR0IE                            00000005
TMR0IF                            00000002
TRISA                             00000085
TRISA0                            00000000
TRISA1                            00000001
TRISA2                            00000002
TRISA3                            00000003
TRISA4                            00000004
TRISB                             00000086
TRISB0                            00000000
TRISB1                            00000001
TRISB2                            00000002
TRISB3                            00000003
TRISB4                            00000004
TRISB5                            00000005
TRISB6                            00000006
TRISB7                            00000007
UP                                00000000
VALA                              00000010
W                                 00000000
WAIT                              00000000
WR                                00000001
WREN                              00000002
WRERR                             00000003
Z                                 00000002
_CONFIG                           00002007
_CP_OFF                           00003FFF
_CP_ON                            0000000F
_DEVID1                           00002006
_FOSC_EXTRC                       00003FFF
_FOSC_HS                          00003FFE
_FOSC_LP                          00003FFC
_FOSC_XT                          00003FFD
_HS_OSC                           00003FFE
_IDLOC0                           00002000
_IDLOC1                           00002001
_IDLOC2                           00002002
_IDLOC3                           00002003
_LP_OSC                           00003FFC
_PWRTE_OFF                        00003FFF
_PWRTE_ON                         00003FF7
_RC_OSC                           00003FFF
_WDTE_OFF                         00003FFB
MPASM 5.53                        TASK 6.ASM   11-21-2013  0:29:55         PAGE  7


SYMBOL TABLE
  LABEL                             VALUE 

_WDTE_ON                          00003FFF
_WDT_OFF                          00003FFB
_WDT_ON                           00003FFF
_XT_OSC                           00003FFD
__16F84A                          00000001

Errors   :    64
Warnings :     0 reported,     0 suppressed
Messages :     2 reported,     0 suppressed

